target datalayout = "e-m:e-p270:32:32-p271:32:32-p272:64:64-i64:64-i128:128-f80:128-n8:16:32:64-S128"
target triple = "x86_64-pc-linux-gnu"

%"struct.std::_Rb_tree_header" = type { %"struct.std::_Rb_tree_node_base", i64 }
%"struct.std::_Rb_tree_node_base" = type { i32, ptr, ptr, ptr }
%"struct.std::__detail::_List_node_header" = type { %"struct.std::__detail::_List_node_base", i64 }
%"struct.std::__detail::_List_node_base" = type { ptr, ptr }
%"class.std::chrono::time_point" = type { %"class.std::chrono::duration" }
%"class.std::chrono::duration" = type { i64 }
%"class.nix::Worker" = type <{ %"class.std::set", %"class.std::set.3", %"class.std::set.3", %"class.std::__cxx11::list", i32, i32, %"class.std::map", %"class.std::map.18", %"class.std::map.23", %"class.std::set.3", %"class.std::set.3", %"class.std::chrono::time_point", %"class.std::map.31", %"struct.nix::Activity", %"struct.nix::Activity", %"struct.nix::Activity", i8, i8, i8, i8, [4 x i8], ptr, ptr, %"class.std::unique_ptr", i64, i64, i64, i64, i64, i64, i64, i64, i64, i64, i64, i64, i8, [7 x i8] }>
%"class.std::set" = type { %"class.std::_Rb_tree" }
%"class.std::_Rb_tree" = type { %"struct.std::_Rb_tree<std::shared_ptr<nix::Goal>, std::shared_ptr<nix::Goal>, std::_Identity<std::shared_ptr<nix::Goal>>, nix::CompareGoalPtrs>::_Rb_tree_impl" }
%"struct.std::_Rb_tree<std::shared_ptr<nix::Goal>, std::shared_ptr<nix::Goal>, std::_Identity<std::shared_ptr<nix::Goal>>, nix::CompareGoalPtrs>::_Rb_tree_impl" = type { %"struct.std::_Rb_tree_key_compare", %"struct.std::_Rb_tree_header" }
%"struct.std::_Rb_tree_key_compare" = type { %"struct.nix::CompareGoalPtrs" }
%"struct.nix::CompareGoalPtrs" = type { i8 }
%"class.std::__cxx11::list" = type { %"class.std::__cxx11::_List_base" }
%"class.std::__cxx11::_List_base" = type { %"struct.std::__cxx11::_List_base<nix::Child, std::allocator<nix::Child>>::_List_impl" }
%"struct.std::__cxx11::_List_base<nix::Child, std::allocator<nix::Child>>::_List_impl" = type { %"struct.std::__detail::_List_node_header" }
%"class.std::map" = type { %"class.std::_Rb_tree.12" }
%"class.std::_Rb_tree.12" = type { %"struct.std::_Rb_tree<nix::StorePath, std::pair<const nix::StorePath, std::weak_ptr<nix::DerivationGoal>>, std::_Select1st<std::pair<const nix::StorePath, std::weak_ptr<nix::DerivationGoal>>>, std::less<nix::StorePath>>::_Rb_tree_impl" }
%"struct.std::_Rb_tree<nix::StorePath, std::pair<const nix::StorePath, std::weak_ptr<nix::DerivationGoal>>, std::_Select1st<std::pair<const nix::StorePath, std::weak_ptr<nix::DerivationGoal>>>, std::less<nix::StorePath>>::_Rb_tree_impl" = type { %"struct.std::_Rb_tree_key_compare.16", %"struct.std::_Rb_tree_header" }
%"struct.std::_Rb_tree_key_compare.16" = type { %"struct.std::less" }
%"struct.std::less" = type { i8 }
%"class.std::map.18" = type { %"class.std::_Rb_tree.19" }
%"class.std::_Rb_tree.19" = type { %"struct.std::_Rb_tree<nix::StorePath, std::pair<const nix::StorePath, std::weak_ptr<nix::PathSubstitutionGoal>>, std::_Select1st<std::pair<const nix::StorePath, std::weak_ptr<nix::PathSubstitutionGoal>>>, std::less<nix::StorePath>>::_Rb_tree_impl" }
%"struct.std::_Rb_tree<nix::StorePath, std::pair<const nix::StorePath, std::weak_ptr<nix::PathSubstitutionGoal>>, std::_Select1st<std::pair<const nix::StorePath, std::weak_ptr<nix::PathSubstitutionGoal>>>, std::less<nix::StorePath>>::_Rb_tree_impl" = type { %"struct.std::_Rb_tree_key_compare.16", %"struct.std::_Rb_tree_header" }
%"class.std::map.23" = type { %"class.std::_Rb_tree.24" }
%"class.std::_Rb_tree.24" = type { %"struct.std::_Rb_tree<nix::DrvOutput, std::pair<const nix::DrvOutput, std::weak_ptr<nix::DrvOutputSubstitutionGoal>>, std::_Select1st<std::pair<const nix::DrvOutput, std::weak_ptr<nix::DrvOutputSubstitutionGoal>>>, std::less<nix::DrvOutput>>::_Rb_tree_impl" }
%"struct.std::_Rb_tree<nix::DrvOutput, std::pair<const nix::DrvOutput, std::weak_ptr<nix::DrvOutputSubstitutionGoal>>, std::_Select1st<std::pair<const nix::DrvOutput, std::weak_ptr<nix::DrvOutputSubstitutionGoal>>>, std::less<nix::DrvOutput>>::_Rb_tree_impl" = type { %"struct.std::_Rb_tree_key_compare.28", %"struct.std::_Rb_tree_header" }
%"struct.std::_Rb_tree_key_compare.28" = type { %"struct.std::less.29" }
%"struct.std::less.29" = type { i8 }
%"class.std::set.3" = type { %"class.std::_Rb_tree.4" }
%"class.std::_Rb_tree.4" = type { %"struct.std::_Rb_tree<std::weak_ptr<nix::Goal>, std::weak_ptr<nix::Goal>, std::_Identity<std::weak_ptr<nix::Goal>>, std::owner_less<std::weak_ptr<nix::Goal>>>::_Rb_tree_impl" }
%"struct.std::_Rb_tree<std::weak_ptr<nix::Goal>, std::weak_ptr<nix::Goal>, std::_Identity<std::weak_ptr<nix::Goal>>, std::owner_less<std::weak_ptr<nix::Goal>>>::_Rb_tree_impl" = type { %"struct.std::_Rb_tree_key_compare.8", %"struct.std::_Rb_tree_header" }
%"struct.std::_Rb_tree_key_compare.8" = type { %"struct.std::owner_less" }
%"struct.std::owner_less" = type { i8 }
%"class.std::map.31" = type { %"class.std::_Rb_tree.32" }
%"class.std::_Rb_tree.32" = type { %"struct.std::_Rb_tree<nix::StorePath, std::pair<const nix::StorePath, bool>, std::_Select1st<std::pair<const nix::StorePath, bool>>, std::less<nix::StorePath>>::_Rb_tree_impl" }
%"struct.std::_Rb_tree<nix::StorePath, std::pair<const nix::StorePath, bool>, std::_Select1st<std::pair<const nix::StorePath, bool>>, std::less<nix::StorePath>>::_Rb_tree_impl" = type { %"struct.std::_Rb_tree_key_compare.16", %"struct.std::_Rb_tree_header" }
%"struct.nix::Activity" = type { ptr, i64 }
%"class.std::unique_ptr" = type { %"struct.std::__uniq_ptr_data" }
%"struct.std::__uniq_ptr_data" = type { %"class.std::__uniq_ptr_impl" }
%"class.std::__uniq_ptr_impl" = type { %"class.std::tuple" }
%"class.std::tuple" = type { %"struct.std::_Tuple_impl" }
%"struct.std::_Tuple_impl" = type { %"struct.std::_Head_base.37" }
%"struct.std::_Head_base.37" = type { ptr }

; Function Attrs: mustprogress nounwind uwtable
define noundef i32 @_ZN3nix6Worker17failingExitStatusEv(ptr noundef nonnull align 8 dereferenceable(649) %0) #2 align 2 {
  %2 = alloca ptr, align 8
  %3 = alloca i32, align 4
  %4 = alloca i8, align 1
  store ptr %0, ptr %2, align 8
  %5 = load ptr, ptr %2, align 8
  store i32 0, ptr %3, align 4
  %6 = getelementptr inbounds %"class.nix::Worker", ptr %5, i32 0, i32 16
  %7 = load i8, ptr %6, align 8
  %8 = trunc i8 %7 to i1
  br i1 %8, label %17, label %9

9:                                                ; preds = %1
  %10 = getelementptr inbounds %"class.nix::Worker", ptr %5, i32 0, i32 17
  %11 = load i8, ptr %10, align 1
  %12 = trunc i8 %11 to i1
  br i1 %12, label %17, label %13

13:                                               ; preds = %9
  %14 = getelementptr inbounds %"class.nix::Worker", ptr %5, i32 0, i32 18
  %15 = load i8, ptr %14, align 2
  %16 = trunc i8 %15 to i1
  br label %17

17:                                               ; preds = %13, %9, %1
  %18 = phi i1 [ true, %9 ], [ true, %1 ], [ %16, %13 ]
  %19 = zext i1 %18 to i8
  store i8 %19, ptr %4, align 1
  %20 = load i8, ptr %4, align 1
  %21 = trunc i8 %20 to i1
  br i1 %21, label %22, label %25

22:                                               ; preds = %17
  %23 = load i32, ptr %3, align 4
  %24 = or i32 %23, 4
  store i32 %24, ptr %3, align 4
  br label %25

25:                                               ; preds = %22, %17
  %26 = getelementptr inbounds %"class.nix::Worker", ptr %5, i32 0, i32 17
  %27 = load i8, ptr %26, align 1
  %28 = trunc i8 %27 to i1
  br i1 %28, label %29, label %32

29:                                               ; preds = %25
  %30 = load i32, ptr %3, align 4
  %31 = or i32 %30, 1
  store i32 %31, ptr %3, align 4
  br label %32

32:                                               ; preds = %29, %25
  %33 = getelementptr inbounds %"class.nix::Worker", ptr %5, i32 0, i32 18
  %34 = load i8, ptr %33, align 2
  %35 = trunc i8 %34 to i1
  br i1 %35, label %36, label %39

36:                                               ; preds = %32
  %37 = load i32, ptr %3, align 4
  %38 = or i32 %37, 2
  store i32 %38, ptr %3, align 4
  br label %39

39:                                               ; preds = %36, %32
  %40 = getelementptr inbounds %"class.nix::Worker", ptr %5, i32 0, i32 19
  %41 = load i8, ptr %40, align 1
  %42 = trunc i8 %41 to i1
  br i1 %42, label %43, label %46

43:                                               ; preds = %39
  %44 = load i32, ptr %3, align 4
  %45 = or i32 %44, 8
  store i32 %45, ptr %3, align 4
  br label %46

46:                                               ; preds = %43, %39
  %47 = load i32, ptr %3, align 4
  %48 = icmp ne i32 %47, 0
  br i1 %48, label %49, label %52

49:                                               ; preds = %46
  %50 = load i32, ptr %3, align 4
  %51 = or i32 %50, 96
  store i32 %51, ptr %3, align 4
  br label %52

52:                                               ; preds = %49, %46
  %53 = load i32, ptr %3, align 4
  %54 = icmp ne i32 %53, 0
  br i1 %54, label %55, label %57

55:                                               ; preds = %52
  %56 = load i32, ptr %3, align 4
  br label %58

57:                                               ; preds = %52
  br label %58

58:                                               ; preds = %57, %55
  %59 = phi i32 [ %56, %55 ], [ 1, %57 ]
  ret i32 %59
}