; Function Attrs: mustprogress nofree norecurse nosync nounwind willreturn memory(argmem: read) uwtable
define noundef i32 @_ZN3nix6Worker17failingExitStatusEv(ptr nocapture noundef nonnull readonly align 8 dereferenceable(649) %0) local_unnamed_addr #9 align 2 {
  %2 = getelementptr inbounds i8, ptr %0, i64 520
  %3 = load i8, ptr %2, align 8
  %4 = and i8 %3, 1
  %.not = icmp eq i8 %4, 0
  %5 = getelementptr inbounds i8, ptr %0, i64 521
  %6 = load i8, ptr %5, align 1
  %7 = and i8 %6, 1
  br i1 %.not, label %8, label %.thread

8:                                                ; preds = %1
  %.not9 = icmp eq i8 %7, 0
  br i1 %.not9, label %9, label %.thread

9:                                                ; preds = %8
  %10 = getelementptr inbounds i8, ptr %0, i64 522
  %11 = load i8, ptr %10, align 2
  %.fr16 = freeze i8 %11
  %12 = and i8 %.fr16, 1
  %.not17 = icmp eq i8 %12, 0
  br i1 %.not17, label %15, label %.thread

.thread:                                          ; preds = %1, %8, %9
  %.pre21.pre-phi = phi i8 [ 1, %8 ], [ 0, %9 ], [ %7, %1 ]
  %.phi.trans.insert18 = getelementptr inbounds i8, ptr %0, i64 522
  %.pre19 = load i8, ptr %.phi.trans.insert18, align 2
  %13 = or disjoint i8 %.pre21.pre-phi, 4
  %14 = zext nneg i8 %13 to i32
  br label %15

15:                                               ; preds = %9, %.thread
  %16 = phi i8 [ %.fr16, %9 ], [ %.pre19, %.thread ]
  %.1 = phi i32 [ 0, %9 ], [ %14, %.thread ]
  %17 = shl i8 %16, 1
  %18 = and i8 %17, 2
  %19 = zext nneg i8 %18 to i32
  %.2 = or disjoint i32 %.1, %19
  %20 = getelementptr inbounds i8, ptr %0, i64 523
  %21 = load i8, ptr %20, align 1
  %22 = shl i8 %21, 3
  %23 = and i8 %22, 8
  %24 = zext nneg i8 %23 to i32
  %.3 = or disjoint i32 %.2, %24
  %.not13 = icmp eq i32 %.3, 0
  %25 = or disjoint i32 %.3, 96
  %26 = select i1 %.not13, i32 1, i32 %25
  ret i32 %26
}